target datalayout = "e-m:e-p270:32:32-p271:32:32-p272:64:64-i64:64-i128:128-f80:128-n8:16:32:64-S128"
target triple = "x86_64-pc-linux-gnu"

%"class.icu_77::number::SimpleNumber" = type <{ ptr, i32, [4 x i8] }>
%"struct.icu_77::number::impl::USimpleNumberData" = type { %"class.icu_77::IcuCApiHelper.14", [4 x i8], %"class.icu_77::number::SimpleNumber" }
%"class.icu_77::IcuCApiHelper.14" = type { i32 }

; Function Attrs: inlinehint mustprogress nounwind uwtable
define internal noundef signext i8 @_ZL9U_FAILURE10UErrorCode(i32 noundef %0) #2 {
  %2 = alloca i32, align 4
  store i32 %0, ptr %2, align 4, !tbaa !15
  %3 = load i32, ptr %2, align 4, !tbaa !15
  %4 = icmp sgt i32 %3, 0
  %5 = zext i1 %4 to i8
  ret i8 %5
}

; Function Attrs: mustprogress nounwind uwtable
define linkonce_odr void @_ZN6icu_7713IcuCApiHelperI13USimpleNumberNS_6number4impl17USimpleNumberDataELi1397640448EED2Ev(ptr noundef nonnull align 4 dereferenceable(4) %0) unnamed_addr #0 comdat align 2 {
  %2 = alloca ptr, align 8
  store ptr %0, ptr %2, align 8, !tbaa !130
  %3 = load ptr, ptr %2, align 8
  %4 = getelementptr inbounds nuw %"class.icu_77::IcuCApiHelper.14", ptr %3, i32 0, i32 0
  store i32 0, ptr %4, align 4, !tbaa !244
  ret void
}

; Function Attrs: mustprogress nounwind uwtable
define linkonce_odr void @_ZN6icu_776number12SimpleNumberD2Ev(ptr noundef nonnull align 8 dereferenceable(12) %0) unnamed_addr #0 comdat align 2 personality ptr @__gxx_personality_v0 {
  %2 = alloca ptr, align 8
  store ptr %0, ptr %2, align 8, !tbaa !124
  %3 = load ptr, ptr %2, align 8
  invoke void @_ZN6icu_776number12SimpleNumber7cleanupEv(ptr noundef nonnull align 8 dereferenceable(12) %3)
          to label %4 unwind label %5

4:                                                ; preds = %1
  ret void

5:                                                ; preds = %1
  %6 = landingpad { ptr, i32 }
          catch ptr null
  %7 = extractvalue { ptr, i32 } %6, 0
  call void @__clang_call_terminate(ptr %7) #13
  unreachable
}

; Function Attrs: mustprogress nounwind uwtable
define linkonce_odr noundef ptr @_ZN6icu_7713IcuCApiHelperI13USimpleNumberNS_6number4impl17USimpleNumberDataELi1397640448EE8validateEPKS1_R10UErrorCode(ptr noundef %0, ptr noundef nonnull align 4 dereferenceable(4) %1) #0 comdat align 2 {
  %3 = alloca ptr, align 8
  %4 = alloca ptr, align 8
  %5 = alloca ptr, align 8
  %6 = alloca ptr, align 8
  %7 = alloca i32, align 4
  store ptr %0, ptr %4, align 8, !tbaa !132
  store ptr %1, ptr %5, align 8, !tbaa !22
  %8 = load ptr, ptr %5, align 8, !tbaa !22
  %9 = load i32, ptr %8, align 4, !tbaa !15
  %10 = call noundef signext i8 @_ZL9U_FAILURE10UErrorCode(i32 noundef %9)
  %11 = icmp ne i8 %10, 0
  br i1 %11, label %12, label %13

12:                                               ; preds = %2
  store ptr null, ptr %3, align 8
  br label %29

13:                                               ; preds = %2
  %14 = load ptr, ptr %4, align 8, !tbaa !132
  %15 = icmp eq ptr %14, null
  br i1 %15, label %16, label %18

16:                                               ; preds = %13
  %17 = load ptr, ptr %5, align 8, !tbaa !22
  store i32 1, ptr %17, align 4, !tbaa !15
  store ptr null, ptr %3, align 8
  br label %29

18:                                               ; preds = %13
  call void @llvm.lifetime.start.p0(i64 8, ptr %6) #11
  %19 = load ptr, ptr %4, align 8, !tbaa !132
  store ptr %19, ptr %6, align 8, !tbaa !122
  %20 = load ptr, ptr %6, align 8, !tbaa !122
  %21 = getelementptr inbounds nuw %"class.icu_77::IcuCApiHelper.14", ptr %20, i32 0, i32 0
  %22 = load i32, ptr %21, align 4, !tbaa !244
  %23 = icmp ne i32 %22, 1397640448
  br i1 %23, label %24, label %26

24:                                               ; preds = %18
  %25 = load ptr, ptr %5, align 8, !tbaa !22
  store i32 3, ptr %25, align 4, !tbaa !15
  store ptr null, ptr %3, align 8
  store i32 1, ptr %7, align 4
  br label %28

26:                                               ; preds = %18
  %27 = load ptr, ptr %6, align 8, !tbaa !122
  store ptr %27, ptr %3, align 8
  store i32 1, ptr %7, align 4
  br label %28

28:                                               ; preds = %26, %24
  call void @llvm.lifetime.end.p0(i64 8, ptr %6) #11
  br label %29

29:                                               ; preds = %28, %16, %12
  %30 = load ptr, ptr %3, align 8
  ret ptr %30
}

; Function Attrs: inlinehint mustprogress nounwind uwtable
define linkonce_odr void @_ZN6icu_776number4impl17USimpleNumberDataD2Ev(ptr noundef nonnull align 8 dereferenceable(24) %0) unnamed_addr #2 comdat align 2 {
  %2 = alloca ptr, align 8
  store ptr %0, ptr %2, align 8, !tbaa !122
  %3 = load ptr, ptr %2, align 8
  %4 = getelementptr inbounds nuw %"struct.icu_77::number::impl::USimpleNumberData", ptr %3, i32 0, i32 2
  call void @_ZN6icu_776number12SimpleNumberD2Ev(ptr noundef nonnull align 8 dereferenceable(12) %4) #11
  call void @_ZN6icu_7713IcuCApiHelperI13USimpleNumberNS_6number4impl17USimpleNumberDataELi1397640448EED2Ev(ptr noundef nonnull align 4 dereferenceable(4) %3) #11
  ret void
}

; Function Attrs: mustprogress uwtable
define linkonce_odr noundef ptr @_ZN6icu_7713IcuCApiHelperI13USimpleNumberNS_6number4impl17USimpleNumberDataELi1397640448EE8validateEPS1_R10UErrorCode(ptr noundef %0, ptr noundef nonnull align 4 dereferenceable(4) %1) #1 comdat align 2 {
  %3 = alloca ptr, align 8
  %4 = alloca ptr, align 8
  %5 = alloca ptr, align 8
  %6 = alloca ptr, align 8
  store ptr %0, ptr %3, align 8, !tbaa !132
  store ptr %1, ptr %4, align 8, !tbaa !22
  call void @llvm.lifetime.start.p0(i64 8, ptr %5) #11
  %7 = load ptr, ptr %3, align 8, !tbaa !132
  store ptr %7, ptr %5, align 8, !tbaa !132
  call void @llvm.lifetime.start.p0(i64 8, ptr %6) #11
  %8 = load ptr, ptr %5, align 8, !tbaa !132
  %9 = load ptr, ptr %4, align 8, !tbaa !22
  %10 = call noundef ptr @_ZN6icu_7713IcuCApiHelperI13USimpleNumberNS_6number4impl17USimpleNumberDataELi1397640448EE8validateEPKS1_R10UErrorCode(ptr noundef %8, ptr noundef nonnull align 4 dereferenceable(4) %9)
  store ptr %10, ptr %6, align 8, !tbaa !122
  %11 = load ptr, ptr %6, align 8, !tbaa !122
  call void @llvm.lifetime.end.p0(i64 8, ptr %6) #11
  call void @llvm.lifetime.end.p0(i64 8, ptr %5) #11
  ret ptr %11
}

; Function Attrs: mustprogress uwtable
define void @usnum_close_77(ptr noundef %0) #1 {
  %2 = alloca ptr, align 8
  %3 = alloca i32, align 4
  %4 = alloca ptr, align 8
  store ptr %0, ptr %2, align 8, !tbaa !132
  call void @llvm.lifetime.start.p0(i64 4, ptr %3) #11
  store i32 0, ptr %3, align 4, !tbaa !15
  call void @llvm.lifetime.start.p0(i64 8, ptr %4) #11
  %5 = load ptr, ptr %2, align 8, !tbaa !132
  %6 = call noundef ptr @_ZN6icu_7713IcuCApiHelperI13USimpleNumberNS_6number4impl17USimpleNumberDataELi1397640448EE8validateEPS1_R10UErrorCode(ptr noundef %5, ptr noundef nonnull align 4 dereferenceable(4) %3)
  store ptr %6, ptr %4, align 8, !tbaa !122
  %7 = load ptr, ptr %4, align 8, !tbaa !122
  %8 = icmp eq ptr %7, null
  br i1 %8, label %10, label %9

9:                                                ; preds = %1
  call void @_ZN6icu_776number4impl17USimpleNumberDataD2Ev(ptr noundef nonnull align 8 dereferenceable(24) %7) #11
  call void @_ZN6icu_777UMemorydlEPv(ptr noundef %7) #11
  br label %10

10:                                               ; preds = %9, %1
  call void @llvm.lifetime.end.p0(i64 8, ptr %4) #11
  call void @llvm.lifetime.end.p0(i64 4, ptr %3) #11
  ret void
}