; Function Attrs: mustprogress nounwind uwtable
define void @usnum_close_77(ptr noundef %0) local_unnamed_addr #0 personality ptr @__gxx_personality_v0 {
  %2 = icmp eq ptr %0, null
  br i1 %2, label %_ZN6icu_7713IcuCApiHelperI13USimpleNumberNS_6number4impl17USimpleNumberDataELi1397640448EE8validateEPS1_R10UErrorCode.exit.thread, label %3

3:                                                ; preds = %1
  %4 = load i32, ptr %0, align 4, !tbaa !77
  %.not9.i.i = icmp eq i32 %4, 1397640448
  br i1 %.not9.i.i, label %_ZN6icu_7713IcuCApiHelperI13USimpleNumberNS_6number4impl17USimpleNumberDataELi1397640448EE8validateEPS1_R10UErrorCode.exit, label %_ZN6icu_7713IcuCApiHelperI13USimpleNumberNS_6number4impl17USimpleNumberDataELi1397640448EE8validateEPS1_R10UErrorCode.exit.thread

_ZN6icu_7713IcuCApiHelperI13USimpleNumberNS_6number4impl17USimpleNumberDataELi1397640448EE8validateEPS1_R10UErrorCode.exit: ; preds = %3
  %5 = getelementptr inbounds nuw i8, ptr %0, i64 8
  invoke void @_ZN6icu_776number12SimpleNumber7cleanupEv(ptr noundef nonnull align 8 dereferenceable(12) %5)
          to label %_ZN6icu_776number4impl17USimpleNumberDataD2Ev.exit unwind label %6

6:                                                ; preds = %_ZN6icu_7713IcuCApiHelperI13USimpleNumberNS_6number4impl17USimpleNumberDataELi1397640448EE8validateEPS1_R10UErrorCode.exit
  %7 = landingpad { ptr, i32 }
          catch ptr null
  %8 = extractvalue { ptr, i32 } %7, 0
  tail call void @__clang_call_terminate(ptr %8) #17
  unreachable

_ZN6icu_776number4impl17USimpleNumberDataD2Ev.exit: ; preds = %_ZN6icu_7713IcuCApiHelperI13USimpleNumberNS_6number4impl17USimpleNumberDataELi1397640448EE8validateEPS1_R10UErrorCode.exit
  store i32 0, ptr %0, align 4, !tbaa !77
  tail call void @_ZN6icu_777UMemorydlEPv(ptr noundef nonnull %0) #15
  br label %_ZN6icu_7713IcuCApiHelperI13USimpleNumberNS_6number4impl17USimpleNumberDataELi1397640448EE8validateEPS1_R10UErrorCode.exit.thread

_ZN6icu_7713IcuCApiHelperI13USimpleNumberNS_6number4impl17USimpleNumberDataELi1397640448EE8validateEPS1_R10UErrorCode.exit.thread: ; preds = %3, %1, %_ZN6icu_776number4impl17USimpleNumberDataD2Ev.exit
  ret void
}